target datalayout = "e-m:e-p270:32:32-p271:32:32-p272:64:64-i64:64-i128:128-f80:128-n8:16:32:64-S128"
target triple = "x86_64-pc-linux-gnu"

%struct.png_struct_def = type { [1 x %struct.__jmp_buf_tag], ptr, ptr, i64, ptr, ptr, ptr, ptr, ptr, ptr, ptr, ptr, ptr, i8, i8, i32, i32, i32, i32, %struct.z_stream_s, ptr, i32, i32, i32, i32, i32, i32, i32, i32, i32, i32, i32, i32, i32, i32, i32, i32, i32, i32, i32, i32, i64, i32, i32, i32, ptr, ptr, ptr, ptr, i64, i32, i32, ptr, i16, i32, i16, i8, i8, i8, i8, i8, i8, i8, i8, i8, i8, i8, i8, i8, i8, i8, i16, i8, i32, %struct.png_color_16_struct, %struct.png_color_16_struct, ptr, i32, i32, i32, i32, ptr, ptr, ptr, ptr, ptr, ptr, %struct.png_color_8_struct, %struct.png_color_8_struct, ptr, %struct.png_color_16_struct, ptr, ptr, ptr, ptr, ptr, ptr, ptr, ptr, ptr, i32, i32, i64, i64, i64, i64, i32, i32, ptr, ptr, i32, [29 x i8], i32, ptr, ptr, i32, i32, ptr, i8, i8, i16, i16, ptr, i32, i8, ptr, ptr, ptr, ptr, ptr, ptr, ptr, i8, i32, i32, i32, i64, %struct.png_unknown_chunk_t, i64, ptr, i64, i32, i32, ptr, [4 x ptr], %struct.png_colorspace }
%struct.__jmp_buf_tag = type { [8 x i64], i32, %struct.__sigset_t }
%struct.__sigset_t = type { [16 x i64] }
%struct.z_stream_s = type { ptr, i32, i64, ptr, i32, i64, ptr, ptr, ptr, ptr, ptr, i32, i64, i64 }
%struct.png_color_8_struct = type { i8, i8, i8, i8, i8 }
%struct.png_color_16_struct = type { i8, i16, i16, i16, i16 }
%struct.png_unknown_chunk_t = type { [5 x i8], ptr, i64, i8 }
%struct.png_colorspace = type { i32, %struct.png_xy, %struct.png_XYZ, i16, i16 }
%struct.png_xy = type { i32, i32, i32, i32, i32, i32, i32, i32 }
%struct.png_XYZ = type { i32, i32, i32, i32, i32, i32, i32, i32, i32 }
%struct.png_image_write_control = type { ptr, ptr, i32, ptr, i32, ptr, i64, ptr, ptr, i64, i64 }
%struct.png_image = type { ptr, i32, i32, i32, i32, i32, i32, i32, [64 x i8] }
%struct.png_control = type { ptr, ptr, ptr, ptr, i64, i8 }

@.str.17 = private unnamed_addr constant [43 x i8] c"png_image_write_to_stdio: invalid argument\00", align 1
@.str.18 = private unnamed_addr constant [54 x i8] c"png_image_write_to_stdio: incorrect PNG_IMAGE_VERSION\00", align 1

; Function Attrs: nounwind uwtable
define i32 @png_image_write_to_stdio(ptr noundef %0, ptr noundef %1, i32 noundef %2, ptr noundef %3, i32 noundef %4, ptr noundef %5) #0 {
  %7 = alloca i32, align 4
  %8 = alloca ptr, align 8
  %9 = alloca ptr, align 8
  %10 = alloca i32, align 4
  %11 = alloca ptr, align 8
  %12 = alloca i32, align 4
  %13 = alloca ptr, align 8
  %14 = alloca %struct.png_image_write_control, align 8
  %15 = alloca i32, align 4
  store ptr %0, ptr %8, align 8
  store ptr %1, ptr %9, align 8
  store i32 %2, ptr %10, align 4
  store ptr %3, ptr %11, align 8
  store i32 %4, ptr %12, align 4
  store ptr %5, ptr %13, align 8
  %16 = load ptr, ptr %8, align 8
  %17 = icmp ne ptr %16, null
  br i1 %17, label %18, label %59

18:                                               ; preds = %6
  %19 = load ptr, ptr %8, align 8
  %20 = getelementptr inbounds %struct.png_image, ptr %19, i32 0, i32 1
  %21 = load i32, ptr %20, align 8
  %22 = icmp eq i32 %21, 1
  br i1 %22, label %23, label %59

23:                                               ; preds = %18
  %24 = load ptr, ptr %9, align 8
  %25 = icmp ne ptr %24, null
  br i1 %25, label %26, label %56

26:                                               ; preds = %23
  %27 = load ptr, ptr %11, align 8
  %28 = icmp ne ptr %27, null
  br i1 %28, label %29, label %56

29:                                               ; preds = %26
  %30 = load ptr, ptr %8, align 8
  %31 = call i32 @png_image_write_init(ptr noundef %30)
  %32 = icmp ne i32 %31, 0
  br i1 %32, label %33, label %55

33:                                               ; preds = %29
  %34 = load ptr, ptr %9, align 8
  %35 = load ptr, ptr %8, align 8
  %36 = getelementptr inbounds %struct.png_image, ptr %35, i32 0, i32 0
  %37 = load ptr, ptr %36, align 8
  %38 = getelementptr inbounds %struct.png_control, ptr %37, i32 0, i32 0
  %39 = load ptr, ptr %38, align 8
  %40 = getelementptr inbounds %struct.png_struct_def, ptr %39, i32 0, i32 9
  store ptr %34, ptr %40, align 8
  call void @llvm.memset.p0.i64(ptr align 8 %14, i8 0, i64 88, i1 false)
  %41 = load ptr, ptr %8, align 8
  %42 = getelementptr inbounds %struct.png_image_write_control, ptr %14, i32 0, i32 0
  store ptr %41, ptr %42, align 8
  %43 = load ptr, ptr %11, align 8
  %44 = getelementptr inbounds %struct.png_image_write_control, ptr %14, i32 0, i32 1
  store ptr %43, ptr %44, align 8
  %45 = load i32, ptr %12, align 4
  %46 = getelementptr inbounds %struct.png_image_write_control, ptr %14, i32 0, i32 2
  store i32 %45, ptr %46, align 8
  %47 = load ptr, ptr %13, align 8
  %48 = getelementptr inbounds %struct.png_image_write_control, ptr %14, i32 0, i32 3
  store ptr %47, ptr %48, align 8
  %49 = load i32, ptr %10, align 4
  %50 = getelementptr inbounds %struct.png_image_write_control, ptr %14, i32 0, i32 4
  store i32 %49, ptr %50, align 8
  %51 = load ptr, ptr %8, align 8
  %52 = call i32 @png_safe_execute(ptr noundef %51, ptr noundef @png_image_write_main, ptr noundef %14)
  store i32 %52, ptr %15, align 4
  %53 = load ptr, ptr %8, align 8
  call void @png_image_free(ptr noundef %53)
  %54 = load i32, ptr %15, align 4
  store i32 %54, ptr %7, align 4
  br label %66

55:                                               ; preds = %29
  store i32 0, ptr %7, align 4
  br label %66

56:                                               ; preds = %26, %23
  %57 = load ptr, ptr %8, align 8
  %58 = call i32 @png_image_error(ptr noundef %57, ptr noundef @.str.17)
  store i32 %58, ptr %7, align 4
  br label %66

59:                                               ; preds = %18, %6
  %60 = load ptr, ptr %8, align 8
  %61 = icmp ne ptr %60, null
  br i1 %61, label %62, label %65

62:                                               ; preds = %59
  %63 = load ptr, ptr %8, align 8
  %64 = call i32 @png_image_error(ptr noundef %63, ptr noundef @.str.18)
  store i32 %64, ptr %7, align 4
  br label %66

65:                                               ; preds = %59
  store i32 0, ptr %7, align 4
  br label %66

66:                                               ; preds = %65, %62, %56, %55, %33
  %67 = load i32, ptr %7, align 4
  ret i32 %67
}