; Function Attrs: nounwind uwtable
define i32 @png_image_write_to_stdio(ptr noundef %0, ptr noundef %1, i32 noundef %2, ptr noundef %3, i32 noundef %4, ptr noundef %5) local_unnamed_addr #0 {
  %7 = alloca %struct.png_image_write_control, align 8
  %.not = icmp eq ptr %0, null
  br i1 %.not, label %.critedge, label %8

8:                                                ; preds = %6
  %9 = getelementptr inbounds i8, ptr %0, i64 8
  %10 = load i32, ptr %9, align 8
  %11 = icmp eq i32 %10, 1
  br i1 %11, label %12, label %29

12:                                               ; preds = %8
  %13 = icmp ne ptr %1, null
  %14 = icmp ne ptr %3, null
  %or.cond = and i1 %13, %14
  br i1 %or.cond, label %15, label %27

15:                                               ; preds = %12
  %16 = tail call fastcc i32 @png_image_write_init(ptr noundef nonnull %0)
  %.not22 = icmp eq i32 %16, 0
  br i1 %.not22, label %.critedge, label %17

17:                                               ; preds = %15
  %18 = load ptr, ptr %0, align 8
  %19 = load ptr, ptr %18, align 8
  %20 = getelementptr inbounds i8, ptr %19, i64 264
  store ptr %1, ptr %20, align 8
  %21 = getelementptr inbounds i8, ptr %7, i64 16
  call void @llvm.memset.p0.i64(ptr noundef nonnull align 8 dereferenceable(88) %21, i8 0, i64 72, i1 false)
  store ptr %0, ptr %7, align 8
  %22 = getelementptr inbounds i8, ptr %7, i64 8
  store ptr %3, ptr %22, align 8
  %23 = getelementptr inbounds i8, ptr %7, i64 16
  store i32 %4, ptr %23, align 8
  %24 = getelementptr inbounds i8, ptr %7, i64 24
  store ptr %5, ptr %24, align 8
  %25 = getelementptr inbounds i8, ptr %7, i64 32
  store i32 %2, ptr %25, align 8
  %26 = call i32 @png_safe_execute(ptr noundef nonnull %0, ptr noundef nonnull @png_image_write_main, ptr noundef nonnull %7) #15
  call void @png_image_free(ptr noundef nonnull %0) #15
  br label %.critedge

27:                                               ; preds = %12
  %28 = tail call i32 @png_image_error(ptr noundef nonnull %0, ptr noundef nonnull @.str.17) #15
  br label %.critedge

29:                                               ; preds = %8
  %30 = tail call i32 @png_image_error(ptr noundef nonnull %0, ptr noundef nonnull @.str.18) #15
  br label %.critedge

.critedge:                                        ; preds = %6, %15, %29, %27, %17
  %.0 = phi i32 [ %26, %17 ], [ %28, %27 ], [ %30, %29 ], [ 0, %15 ], [ 0, %6 ]
  ret i32 %.0
}